; Function Attrs: mustprogress nofree norecurse nosync nounwind willreturn memory(none) uwtable
define noundef range(i32 -87, 65488) i32 @_Z18ufmt_digitvalue_77Ds(i16 noundef zeroext %0) local_unnamed_addr #0 {
  %2 = add i16 %0, -48
  %or.cond = icmp ult i16 %2, 10
  %3 = and i16 %0, -33
  %4 = add i16 %3, -65
  %5 = icmp ult i16 %4, 26
  %or.cond20 = or i1 %or.cond, %5
  br i1 %or.cond20, label %6, label %12

6:                                                ; preds = %1
  %7 = zext i16 %0 to i32
  %8 = add nsw i32 %7, -48
  %9 = icmp samesign ugt i16 %0, 64
  %10 = icmp samesign ugt i16 %0, 96
  %.neg = select i1 %10, i32 -39, i32 -7
  %.neg18 = select i1 %9, i32 %.neg, i32 0
  %11 = add nsw i32 %8, %.neg18
  br label %12

12:                                               ; preds = %1, %6
  %.0 = phi i32 [ %11, %6 ], [ -1, %1 ]
  ret i32 %.0
}